target datalayout = "e-m:e-p270:32:32-p271:32:32-p272:64:64-i64:64-i128:128-f80:128-n8:16:32:64-S128"
target triple = "x86_64-pc-linux-gnu"

%struct.lua_State = type { %struct.GCRef, i8, i8, i8, i8, %struct.MRef, %struct.GCRef, ptr, ptr, %struct.MRef, %struct.MRef, %struct.GCRef, %struct.GCRef, ptr, i32 }
%struct.MRef = type { i64 }
%struct.GCRef = type { i64 }
%union.TValue = type { i64 }
%struct.GCtab = type { %struct.GCRef, i8, i8, i8, i8, %struct.MRef, %struct.GCRef, %struct.GCRef, %struct.MRef, i32, i32, %struct.MRef }
%struct.Node = type { %union.TValue, %union.TValue, %struct.MRef }

; Function Attrs: alwaysinline nounwind uwtable
define internal double @numberVnum(ptr noundef %0) #3 {
  %2 = alloca ptr, align 8
  store ptr %0, ptr %2, align 8, !tbaa !21
  %3 = load ptr, ptr %2, align 8, !tbaa !21
  %4 = load double, ptr %3, align 8, !tbaa !16
  ret double %4
}

; Function Attrs: nounwind uwtable
define internal i32 @lj_cf_table_maxn(ptr noundef %0) #0 {
  %2 = alloca ptr, align 8
  %3 = alloca ptr, align 8
  %4 = alloca ptr, align 8
  %5 = alloca ptr, align 8
  %6 = alloca double, align 8
  %7 = alloca i64, align 8
  %8 = alloca double, align 8
  store ptr %0, ptr %2, align 8, !tbaa !4
  call void @llvm.lifetime.start.p0(i64 8, ptr %3) #7
  %9 = load ptr, ptr %2, align 8, !tbaa !4
  %10 = call ptr @lj_lib_checktab(ptr noundef %9, i32 noundef 1)
  store ptr %10, ptr %3, align 8, !tbaa !17
  call void @llvm.lifetime.start.p0(i64 8, ptr %4) #7
  %11 = load ptr, ptr %3, align 8, !tbaa !17
  %12 = getelementptr inbounds nuw %struct.GCtab, ptr %11, i32 0, i32 5
  %13 = getelementptr inbounds nuw %struct.MRef, ptr %12, i32 0, i32 0
  %14 = load i64, ptr %13, align 8, !tbaa !19
  %15 = inttoptr i64 %14 to ptr
  store ptr %15, ptr %4, align 8, !tbaa !21
  call void @llvm.lifetime.start.p0(i64 8, ptr %5) #7
  call void @llvm.lifetime.start.p0(i64 8, ptr %6) #7
  store double 0.000000e+00, ptr %6, align 8, !tbaa !22
  call void @llvm.lifetime.start.p0(i64 8, ptr %7) #7
  %16 = load ptr, ptr %3, align 8, !tbaa !17
  %17 = getelementptr inbounds nuw %struct.GCtab, ptr %16, i32 0, i32 9
  %18 = load i32, ptr %17, align 8, !tbaa !24
  %19 = zext i32 %18 to i64
  %20 = sub nsw i64 %19, 1
  store i64 %20, ptr %7, align 8, !tbaa !25
  br label %21

21:                                               ; preds = %35, %1
  %22 = load i64, ptr %7, align 8, !tbaa !25
  %23 = icmp sge i64 %22, 0
  br i1 %23, label %24, label %38

24:                                               ; preds = %21
  %25 = load ptr, ptr %4, align 8, !tbaa !21
  %26 = load i64, ptr %7, align 8, !tbaa !25
  %27 = getelementptr inbounds %union.TValue, ptr %25, i64 %26
  %28 = load i64, ptr %27, align 8, !tbaa !16
  %29 = icmp eq i64 %28, -1
  br i1 %29, label %34, label %30

30:                                               ; preds = %24
  %31 = load i64, ptr %7, align 8, !tbaa !25
  %32 = trunc i64 %31 to i32
  %33 = sitofp i32 %32 to double
  store double %33, ptr %6, align 8, !tbaa !22
  br label %38

34:                                               ; preds = %24
  br label %35

35:                                               ; preds = %34
  %36 = load i64, ptr %7, align 8, !tbaa !25
  %37 = add nsw i64 %36, -1
  store i64 %37, ptr %7, align 8, !tbaa !25
  br label %21, !llvm.loop !26

38:                                               ; preds = %30, %21
  %39 = load ptr, ptr %3, align 8, !tbaa !17
  %40 = getelementptr inbounds nuw %struct.GCtab, ptr %39, i32 0, i32 8
  %41 = getelementptr inbounds nuw %struct.MRef, ptr %40, i32 0, i32 0
  %42 = load i64, ptr %41, align 8, !tbaa !28
  %43 = inttoptr i64 %42 to ptr
  store ptr %43, ptr %5, align 8, !tbaa !29
  %44 = load ptr, ptr %3, align 8, !tbaa !17
  %45 = getelementptr inbounds nuw %struct.GCtab, ptr %44, i32 0, i32 10
  %46 = load i32, ptr %45, align 4, !tbaa !31
  %47 = zext i32 %46 to i64
  store i64 %47, ptr %7, align 8, !tbaa !25
  br label %48

48:                                               ; preds = %80, %38
  %49 = load i64, ptr %7, align 8, !tbaa !25
  %50 = icmp sge i64 %49, 0
  br i1 %50, label %51, label %83

51:                                               ; preds = %48
  %52 = load ptr, ptr %5, align 8, !tbaa !29
  %53 = load i64, ptr %7, align 8, !tbaa !25
  %54 = getelementptr inbounds %struct.Node, ptr %52, i64 %53
  %55 = getelementptr inbounds nuw %struct.Node, ptr %54, i32 0, i32 0
  %56 = load i64, ptr %55, align 8, !tbaa !16
  %57 = icmp eq i64 %56, -1
  br i1 %57, label %79, label %58

58:                                               ; preds = %51
  %59 = load ptr, ptr %5, align 8, !tbaa !29
  %60 = load i64, ptr %7, align 8, !tbaa !25
  %61 = getelementptr inbounds %struct.Node, ptr %59, i64 %60
  %62 = getelementptr inbounds nuw %struct.Node, ptr %61, i32 0, i32 1
  %63 = load i64, ptr %62, align 8, !tbaa !16
  %64 = ashr i64 %63, 47
  %65 = trunc i64 %64 to i32
  %66 = icmp ule i32 %65, -14
  br i1 %66, label %67, label %79

67:                                               ; preds = %58
  call void @llvm.lifetime.start.p0(i64 8, ptr %8) #7
  %68 = load ptr, ptr %5, align 8, !tbaa !29
  %69 = load i64, ptr %7, align 8, !tbaa !25
  %70 = getelementptr inbounds %struct.Node, ptr %68, i64 %69
  %71 = getelementptr inbounds nuw %struct.Node, ptr %70, i32 0, i32 1
  %72 = call double @numberVnum(ptr noundef %71)
  store double %72, ptr %8, align 8, !tbaa !22
  %73 = load double, ptr %8, align 8, !tbaa !22
  %74 = load double, ptr %6, align 8, !tbaa !22
  %75 = fcmp ogt double %73, %74
  br i1 %75, label %76, label %78

76:                                               ; preds = %67
  %77 = load double, ptr %8, align 8, !tbaa !22
  store double %77, ptr %6, align 8, !tbaa !22
  br label %78

78:                                               ; preds = %76, %67
  call void @llvm.lifetime.end.p0(i64 8, ptr %8) #7
  br label %79

79:                                               ; preds = %78, %58, %51
  br label %80

80:                                               ; preds = %79
  %81 = load i64, ptr %7, align 8, !tbaa !25
  %82 = add nsw i64 %81, -1
  store i64 %82, ptr %7, align 8, !tbaa !25
  br label %48, !llvm.loop !32

83:                                               ; preds = %48
  %84 = load double, ptr %6, align 8, !tbaa !22
  %85 = load ptr, ptr %2, align 8, !tbaa !4
  %86 = getelementptr inbounds nuw %struct.lua_State, ptr %85, i32 0, i32 8
  %87 = load ptr, ptr %86, align 8, !tbaa !9
  %88 = getelementptr inbounds %union.TValue, ptr %87, i64 -1
  store double %84, ptr %88, align 8, !tbaa !16
  call void @llvm.lifetime.end.p0(i64 8, ptr %7) #7
  call void @llvm.lifetime.end.p0(i64 8, ptr %6) #7
  call void @llvm.lifetime.end.p0(i64 8, ptr %5) #7
  call void @llvm.lifetime.end.p0(i64 8, ptr %4) #7
  call void @llvm.lifetime.end.p0(i64 8, ptr %3) #7
  ret i32 1
}