; Function Attrs: nounwind uwtable
define internal noundef i32 @lj_cf_table_maxn(ptr noundef %0) #0 {
  %2 = tail call ptr @lj_lib_checktab(ptr noundef %0, i32 noundef 1) #4
  %3 = getelementptr inbounds nuw i8, ptr %2, i64 16
  %4 = load i64, ptr %3, align 8, !tbaa !15
  %5 = inttoptr i64 %4 to ptr
  %6 = getelementptr inbounds nuw i8, ptr %2, i64 48
  %7 = load i32, ptr %6, align 8, !tbaa !17
  %8 = zext i32 %7 to i64
  br label %9

9:                                                ; preds = %11, %1
  %.022.in = phi i64 [ %8, %1 ], [ %.022, %11 ]
  %10 = icmp sgt i64 %.022.in, 0
  br i1 %10, label %11, label %.loopexit

11:                                               ; preds = %9
  %.022 = add nsw i64 %.022.in, -1
  %12 = getelementptr inbounds nuw %union.TValue, ptr %5, i64 %.022
  %13 = load i64, ptr %12, align 8, !tbaa !14
  %14 = icmp eq i64 %13, -1
  br i1 %14, label %9, label %15, !llvm.loop !18

15:                                               ; preds = %11
  %16 = trunc nuw i64 %.022 to i32
  %17 = sitofp i32 %16 to double
  br label %.loopexit

.loopexit:                                        ; preds = %9, %15
  %.0 = phi double [ %17, %15 ], [ 0.000000e+00, %9 ]
  %18 = getelementptr inbounds nuw i8, ptr %2, i64 40
  %19 = load i64, ptr %18, align 8, !tbaa !20
  %20 = inttoptr i64 %19 to ptr
  %21 = getelementptr inbounds nuw i8, ptr %2, i64 52
  %22 = load i32, ptr %21, align 4, !tbaa !21
  %23 = zext i32 %22 to i64
  br label %24

24:                                               ; preds = %.loopexit, %35
  %.127 = phi double [ %.0, %.loopexit ], [ %.3, %35 ]
  %.12326 = phi i64 [ %23, %.loopexit ], [ %36, %35 ]
  %25 = getelementptr inbounds nuw %struct.Node, ptr %20, i64 %.12326
  %26 = load i64, ptr %25, align 8, !tbaa !14
  %27 = icmp eq i64 %26, -1
  br i1 %27, label %35, label %28

28:                                               ; preds = %24
  %29 = getelementptr inbounds nuw i8, ptr %25, i64 8
  %30 = load i64, ptr %29, align 8
  %31 = icmp ult i64 %30, -1829587348619264
  br i1 %31, label %32, label %35

32:                                               ; preds = %28
  %33 = bitcast i64 %30 to double
  %34 = fcmp olt double %.127, %33
  %.2 = select i1 %34, double %33, double %.127
  br label %35

35:                                               ; preds = %24, %28, %32
  %.3 = phi double [ %.127, %24 ], [ %.2, %32 ], [ %.127, %28 ]
  %36 = add nsw i64 %.12326, -1
  %37 = icmp sgt i64 %.12326, 0
  br i1 %37, label %24, label %38, !llvm.loop !22

38:                                               ; preds = %35
  %39 = getelementptr inbounds nuw i8, ptr %0, i64 40
  %40 = load ptr, ptr %39, align 8, !tbaa !4
  %41 = getelementptr inbounds i8, ptr %40, i64 -8
  store double %.3, ptr %41, align 8, !tbaa !14
  ret i32 1
}